; Function Attrs: nounwind uwtable
define dso_local range(i32 -2147483647, -2147483648) i32 @uv_os_homedir(ptr noundef writeonly captures(address_is_null) %0, ptr noundef captures(address_is_null) %1) local_unnamed_addr #0 {
  %3 = alloca %struct.uv_passwd_s, align 8
  call void @llvm.lifetime.start.p0(i64 40, ptr nonnull %3) #23
  %4 = icmp eq ptr %0, null
  %5 = icmp eq ptr %1, null
  %or.cond3.i = or i1 %4, %5
  br i1 %or.cond3.i, label %uv_os_getenv.exit.thread, label %6

6:                                                ; preds = %2
  %7 = load i64, ptr %1, align 8
  %8 = icmp eq i64 %7, 0
  br i1 %8, label %uv_os_getenv.exit.thread, label %9

9:                                                ; preds = %6
  %10 = tail call ptr @getenv(ptr noundef nonnull @.str.1) #23
  %11 = icmp eq ptr %10, null
  br i1 %11, label %uv_os_getenv.exit, label %12

12:                                               ; preds = %9
  %13 = tail call i64 @strlen(ptr noundef nonnull dereferenceable(1) %10) #25
  %.not.i = icmp ult i64 %13, %7
  %14 = add i64 %13, 1
  br i1 %.not.i, label %15, label %.sink.split.i

15:                                               ; preds = %12
  tail call void @llvm.memcpy.p0.p0.i64(ptr noundef nonnull align 1 dereferenceable(1) %0, ptr noundef nonnull align 1 dereferenceable(1) %10, i64 %14, i1 false)
  br label %.sink.split.i

.sink.split.i:                                    ; preds = %15, %12
  %.sink.i = phi i64 [ %13, %15 ], [ %14, %12 ]
  %.0.ph.i = phi i32 [ 0, %15 ], [ -105, %12 ]
  store i64 %.sink.i, ptr %1, align 8
  br label %uv_os_getenv.exit.thread

uv_os_getenv.exit:                                ; preds = %9
  %16 = tail call i32 @geteuid() #23
  %17 = call fastcc range(i32 -2147483647, -2147483648) i32 @uv__getpwuid_r(ptr noundef nonnull %3, i32 noundef %16)
  %.not17 = icmp eq i32 %17, 0
  br i1 %.not17, label %18, label %uv_os_getenv.exit.thread

18:                                               ; preds = %uv_os_getenv.exit
  %19 = getelementptr inbounds nuw i8, ptr %3, i64 32
  %20 = load ptr, ptr %19, align 8
  %21 = call i64 @strlen(ptr noundef nonnull dereferenceable(1) %20) #25
  %22 = load i64, ptr %1, align 8
  %.not18 = icmp ult i64 %21, %22
  %23 = add i64 %21, 1
  br i1 %.not18, label %25, label %24

24:                                               ; preds = %18
  store i64 %23, ptr %1, align 8
  call void @uv_os_free_passwd(ptr noundef nonnull %3) #23
  br label %uv_os_getenv.exit.thread

25:                                               ; preds = %18
  call void @llvm.memcpy.p0.p0.i64(ptr noundef nonnull align 1 dereferenceable(1) %0, ptr noundef nonnull align 1 dereferenceable(1) %20, i64 %23, i1 false)
  store i64 %21, ptr %1, align 8
  call void @uv_os_free_passwd(ptr noundef nonnull %3) #23
  br label %uv_os_getenv.exit.thread

uv_os_getenv.exit.thread:                         ; preds = %.sink.split.i, %2, %6, %uv_os_getenv.exit, %25, %24
  %.0 = phi i32 [ -105, %24 ], [ 0, %25 ], [ %17, %uv_os_getenv.exit ], [ %.0.ph.i, %.sink.split.i ], [ -22, %2 ], [ -22, %6 ]
  call void @llvm.lifetime.end.p0(i64 40, ptr nonnull %3) #23
  ret i32 %.0
}